target datalayout = "e-m:e-p270:32:32-p271:32:32-p272:64:64-i64:64-i128:128-f80:128-n8:16:32:64-S128"
target triple = "x86_64-pc-linux-gnu"

%struct.AVDictionaryEntry = type { ptr, ptr }

@.str.292 = private unnamed_addr constant [1 x i8] zeroinitializer, align 1
@.str.496 = private unnamed_addr constant [9 x i8] c"location\00", align 1
@mov_write_loci_tag.astronomical_body = internal global ptr @.str.502, align 8
@.str.503 = private unnamed_addr constant [29 x i8] c"malformed location metadata\0A\00", align 1
@.str.504 = private unnamed_addr constant [5 x i8] c"loci\00", align 1

; Function Attrs: nounwind uwtable
define internal i64 @update_size(ptr noundef %0, i64 noundef %1) #0 {
  %3 = alloca ptr, align 8
  %4 = alloca i64, align 8
  %5 = alloca i64, align 8
  store ptr %0, ptr %3, align 8, !tbaa !31
  store i64 %1, ptr %4, align 8, !tbaa !134
  call void @llvm.lifetime.start.p0(i64 8, ptr %5) #14
  %6 = load ptr, ptr %3, align 8, !tbaa !31
  %7 = call i64 @avio_tell(ptr noundef %6)
  store i64 %7, ptr %5, align 8, !tbaa !134
  %8 = load ptr, ptr %3, align 8, !tbaa !31
  %9 = load i64, ptr %4, align 8, !tbaa !134
  %10 = call i64 @avio_seek(ptr noundef %8, i64 noundef %9, i32 noundef 0)
  %11 = load ptr, ptr %3, align 8, !tbaa !31
  %12 = load i64, ptr %5, align 8, !tbaa !134
  %13 = load i64, ptr %4, align 8, !tbaa !134
  %14 = sub nsw i64 %12, %13
  %15 = trunc i64 %14 to i32
  call void @avio_wb32(ptr noundef %11, i32 noundef %15)
  %16 = load ptr, ptr %3, align 8, !tbaa !31
  %17 = load i64, ptr %5, align 8, !tbaa !134
  %18 = call i64 @avio_seek(ptr noundef %16, i64 noundef %17, i32 noundef 0)
  %19 = load i64, ptr %5, align 8, !tbaa !134
  %20 = load i64, ptr %4, align 8, !tbaa !134
  %21 = sub nsw i64 %19, %20
  call void @llvm.lifetime.end.p0(i64 8, ptr %5) #14
  ret i64 %21
}

; Function Attrs: alwaysinline nounwind uwtable
define internal void @ffio_wfourcc(ptr noundef %0, ptr noundef %1) #6 {
  %3 = alloca ptr, align 8
  %4 = alloca ptr, align 8
  store ptr %0, ptr %3, align 8, !tbaa !31
  store ptr %1, ptr %4, align 8, !tbaa !38
  %5 = load ptr, ptr %3, align 8, !tbaa !31
  %6 = load ptr, ptr %4, align 8, !tbaa !38
  %7 = getelementptr inbounds i8, ptr %6, i64 0
  %8 = load i8, ptr %7, align 1, !tbaa !85
  %9 = zext i8 %8 to i32
  %10 = load ptr, ptr %4, align 8, !tbaa !38
  %11 = getelementptr inbounds i8, ptr %10, i64 1
  %12 = load i8, ptr %11, align 1, !tbaa !85
  %13 = zext i8 %12 to i32
  %14 = shl i32 %13, 8
  %15 = or i32 %9, %14
  %16 = load ptr, ptr %4, align 8, !tbaa !38
  %17 = getelementptr inbounds i8, ptr %16, i64 2
  %18 = load i8, ptr %17, align 1, !tbaa !85
  %19 = zext i8 %18 to i32
  %20 = shl i32 %19, 16
  %21 = or i32 %15, %20
  %22 = load ptr, ptr %4, align 8, !tbaa !38
  %23 = getelementptr inbounds i8, ptr %22, i64 3
  %24 = load i8, ptr %23, align 1, !tbaa !85
  %25 = zext i8 %24 to i32
  %26 = shl i32 %25, 24
  %27 = or i32 %21, %26
  call void @avio_wl32(ptr noundef %5, i32 noundef %27)
  ret void
}

; Function Attrs: alwaysinline nounwind uwtable
define internal i64 @avio_tell(ptr noundef %0) #6 {
  %2 = alloca ptr, align 8
  store ptr %0, ptr %2, align 8, !tbaa !31
  %3 = load ptr, ptr %2, align 8, !tbaa !31
  %4 = call i64 @avio_seek(ptr noundef %3, i64 noundef 0, i32 noundef 1)
  ret i64 %4
}

; Function Attrs: nounwind uwtable
define internal i32 @mov_write_loci_tag(ptr noundef %0, ptr noundef %1) #0 {
  %3 = alloca i32, align 4
  %4 = alloca ptr, align 8
  %5 = alloca ptr, align 8
  %6 = alloca i32, align 4
  %7 = alloca i64, align 8
  %8 = alloca double, align 8
  %9 = alloca double, align 8
  %10 = alloca double, align 8
  %11 = alloca i32, align 4
  %12 = alloca i32, align 4
  %13 = alloca i32, align 4
  %14 = alloca ptr, align 8
  %15 = alloca ptr, align 8
  %16 = alloca ptr, align 8
  %17 = alloca ptr, align 8
  %18 = alloca i32, align 4
  store ptr %0, ptr %4, align 8, !tbaa !4
  store ptr %1, ptr %5, align 8, !tbaa !31
  call void @llvm.lifetime.start.p0(i64 4, ptr %6) #14
  call void @llvm.lifetime.start.p0(i64 8, ptr %7) #14
  %19 = load ptr, ptr %5, align 8, !tbaa !31
  %20 = call i64 @avio_tell(ptr noundef %19)
  store i64 %20, ptr %7, align 8, !tbaa !134
  call void @llvm.lifetime.start.p0(i64 8, ptr %8) #14
  call void @llvm.lifetime.start.p0(i64 8, ptr %9) #14
  call void @llvm.lifetime.start.p0(i64 8, ptr %10) #14
  call void @llvm.lifetime.start.p0(i64 4, ptr %11) #14
  call void @llvm.lifetime.start.p0(i64 4, ptr %12) #14
  call void @llvm.lifetime.start.p0(i64 4, ptr %13) #14
  call void @llvm.lifetime.start.p0(i64 8, ptr %14) #14
  %21 = load ptr, ptr %4, align 8, !tbaa !4
  %22 = call ptr @get_metadata_lang(ptr noundef %21, ptr noundef @.str.496, ptr noundef %6)
  store ptr %22, ptr %14, align 8, !tbaa !210
  call void @llvm.lifetime.start.p0(i64 8, ptr %15) #14
  call void @llvm.lifetime.start.p0(i64 8, ptr %16) #14
  store ptr @.str.292, ptr %16, align 8, !tbaa !38
  call void @llvm.lifetime.start.p0(i64 8, ptr %17) #14
  %23 = load ptr, ptr %14, align 8, !tbaa !210
  %24 = icmp ne ptr %23, null
  br i1 %24, label %26, label %25

25:                                               ; preds = %2
  store i32 0, ptr %3, align 4
  store i32 1, ptr %18, align 4
  br label %96

26:                                               ; preds = %2
  %27 = load ptr, ptr %14, align 8, !tbaa !210
  %28 = getelementptr inbounds nuw %struct.AVDictionaryEntry, ptr %27, i32 0, i32 1
  %29 = load ptr, ptr %28, align 8, !tbaa !213
  store ptr %29, ptr %15, align 8, !tbaa !38
  %30 = load ptr, ptr %15, align 8, !tbaa !38
  %31 = call nsz double @strtod(ptr noundef %30, ptr noundef %17) #14
  store double %31, ptr %8, align 8, !tbaa !371
  %32 = load ptr, ptr %17, align 8, !tbaa !38
  %33 = load ptr, ptr %15, align 8, !tbaa !38
  %34 = icmp eq ptr %32, %33
  br i1 %34, label %35, label %37

35:                                               ; preds = %26
  %36 = load ptr, ptr %4, align 8, !tbaa !4
  call void (ptr, i32, ptr, ...) @av_log(ptr noundef %36, i32 noundef 24, ptr noundef @.str.503)
  store i32 0, ptr %3, align 4
  store i32 1, ptr %18, align 4
  br label %96

37:                                               ; preds = %26
  %38 = load ptr, ptr %17, align 8, !tbaa !38
  store ptr %38, ptr %15, align 8, !tbaa !38
  %39 = load ptr, ptr %15, align 8, !tbaa !38
  %40 = call nsz double @strtod(ptr noundef %39, ptr noundef %17) #14
  store double %40, ptr %9, align 8, !tbaa !371
  %41 = load ptr, ptr %17, align 8, !tbaa !38
  %42 = load ptr, ptr %15, align 8, !tbaa !38
  %43 = icmp eq ptr %41, %42
  br i1 %43, label %44, label %46

44:                                               ; preds = %37
  %45 = load ptr, ptr %4, align 8, !tbaa !4
  call void (ptr, i32, ptr, ...) @av_log(ptr noundef %45, i32 noundef 24, ptr noundef @.str.503)
  store i32 0, ptr %3, align 4
  store i32 1, ptr %18, align 4
  br label %96

46:                                               ; preds = %37
  %47 = load ptr, ptr %17, align 8, !tbaa !38
  store ptr %47, ptr %15, align 8, !tbaa !38
  %48 = load ptr, ptr %15, align 8, !tbaa !38
  %49 = call nsz double @strtod(ptr noundef %48, ptr noundef %17) #14
  store double %49, ptr %10, align 8, !tbaa !371
  %50 = load ptr, ptr %17, align 8, !tbaa !38
  %51 = load i8, ptr %50, align 1, !tbaa !85
  %52 = sext i8 %51 to i32
  %53 = icmp eq i32 %52, 47
  br i1 %53, label %54, label %57

54:                                               ; preds = %46
  %55 = load ptr, ptr %17, align 8, !tbaa !38
  %56 = getelementptr inbounds i8, ptr %55, i64 1
  store ptr %56, ptr %16, align 8, !tbaa !38
  br label %57

57:                                               ; preds = %54, %46
  %58 = load double, ptr %8, align 8, !tbaa !371
  %59 = fmul nsz double 6.553600e+04, %58
  %60 = fptosi double %59 to i32
  store i32 %60, ptr %11, align 4, !tbaa !32
  %61 = load double, ptr %9, align 8, !tbaa !371
  %62 = fmul nsz double 6.553600e+04, %61
  %63 = fptosi double %62 to i32
  store i32 %63, ptr %12, align 4, !tbaa !32
  %64 = load double, ptr %10, align 8, !tbaa !371
  %65 = fmul nsz double 6.553600e+04, %64
  %66 = fptosi double %65 to i32
  store i32 %66, ptr %13, align 4, !tbaa !32
  %67 = load ptr, ptr %5, align 8, !tbaa !31
  call void @avio_wb32(ptr noundef %67, i32 noundef 0)
  %68 = load ptr, ptr %5, align 8, !tbaa !31
  call void @ffio_wfourcc(ptr noundef %68, ptr noundef @.str.504)
  %69 = load ptr, ptr %5, align 8, !tbaa !31
  call void @avio_wb32(ptr noundef %69, i32 noundef 0)
  %70 = load ptr, ptr %5, align 8, !tbaa !31
  %71 = load i32, ptr %6, align 4, !tbaa !32
  call void @avio_wb16(ptr noundef %70, i32 noundef %71)
  %72 = load ptr, ptr %5, align 8, !tbaa !31
  %73 = load ptr, ptr %16, align 8, !tbaa !38
  %74 = load ptr, ptr %16, align 8, !tbaa !38
  %75 = call i64 @strlen(ptr noundef %74) #17
  %76 = add i64 %75, 1
  %77 = trunc i64 %76 to i32
  call void @avio_write(ptr noundef %72, ptr noundef %73, i32 noundef %77)
  %78 = load ptr, ptr %5, align 8, !tbaa !31
  call void @avio_w8(ptr noundef %78, i32 noundef 0)
  %79 = load ptr, ptr %5, align 8, !tbaa !31
  %80 = load i32, ptr %12, align 4, !tbaa !32
  call void @avio_wb32(ptr noundef %79, i32 noundef %80)
  %81 = load ptr, ptr %5, align 8, !tbaa !31
  %82 = load i32, ptr %11, align 4, !tbaa !32
  call void @avio_wb32(ptr noundef %81, i32 noundef %82)
  %83 = load ptr, ptr %5, align 8, !tbaa !31
  %84 = load i32, ptr %13, align 4, !tbaa !32
  call void @avio_wb32(ptr noundef %83, i32 noundef %84)
  %85 = load ptr, ptr %5, align 8, !tbaa !31
  %86 = load ptr, ptr @mov_write_loci_tag.astronomical_body, align 8, !tbaa !38
  %87 = load ptr, ptr @mov_write_loci_tag.astronomical_body, align 8, !tbaa !38
  %88 = call i64 @strlen(ptr noundef %87) #17
  %89 = add i64 %88, 1
  %90 = trunc i64 %89 to i32
  call void @avio_write(ptr noundef %85, ptr noundef %86, i32 noundef %90)
  %91 = load ptr, ptr %5, align 8, !tbaa !31
  call void @avio_w8(ptr noundef %91, i32 noundef 0)
  %92 = load ptr, ptr %5, align 8, !tbaa !31
  %93 = load i64, ptr %7, align 8, !tbaa !134
  %94 = call i64 @update_size(ptr noundef %92, i64 noundef %93)
  %95 = trunc i64 %94 to i32
  store i32 %95, ptr %3, align 4
  store i32 1, ptr %18, align 4
  br label %96

96:                                               ; preds = %57, %44, %35, %25
  call void @llvm.lifetime.end.p0(i64 8, ptr %17) #14
  call void @llvm.lifetime.end.p0(i64 8, ptr %16) #14
  call void @llvm.lifetime.end.p0(i64 8, ptr %15) #14
  call void @llvm.lifetime.end.p0(i64 8, ptr %14) #14
  call void @llvm.lifetime.end.p0(i64 4, ptr %13) #14
  call void @llvm.lifetime.end.p0(i64 4, ptr %12) #14
  call void @llvm.lifetime.end.p0(i64 4, ptr %11) #14
  call void @llvm.lifetime.end.p0(i64 8, ptr %10) #14
  call void @llvm.lifetime.end.p0(i64 8, ptr %9) #14
  call void @llvm.lifetime.end.p0(i64 8, ptr %8) #14
  call void @llvm.lifetime.end.p0(i64 8, ptr %7) #14
  call void @llvm.lifetime.end.p0(i64 4, ptr %6) #14
  %97 = load i32, ptr %3, align 4
  ret i32 %97
}