; Function Attrs: nounwind uwtable
define internal fastcc void @mov_write_loci_tag(ptr noundef %0, ptr noundef %1) unnamed_addr #0 {
  %3 = alloca i32, align 4
  %4 = alloca ptr, align 8
  call void @llvm.lifetime.start.p0(i64 4, ptr nonnull %3) #16
  %5 = tail call i64 @avio_seek(ptr noundef %1, i64 noundef 0, i32 noundef 1) #16
  %6 = call fastcc ptr @get_metadata_lang(ptr noundef %0, ptr noundef nonnull @.str.496, ptr noundef %3)
  call void @llvm.lifetime.start.p0(i64 8, ptr nonnull %4) #16
  %.not = icmp eq ptr %6, null
  br i1 %.not, label %40, label %7

7:                                                ; preds = %2
  %8 = getelementptr inbounds nuw i8, ptr %6, i64 8
  %9 = load ptr, ptr %8, align 8, !tbaa !203
  %10 = call nsz double @strtod(ptr noundef %9, ptr noundef nonnull %4) #16
  %11 = load ptr, ptr %4, align 8, !tbaa !31
  %12 = icmp eq ptr %11, %9
  br i1 %12, label %13, label %14

13:                                               ; preds = %7
  tail call void (ptr, i32, ptr, ...) @av_log(ptr noundef %0, i32 noundef 24, ptr noundef nonnull @.str.503) #16
  br label %40

14:                                               ; preds = %7
  %15 = call nsz double @strtod(ptr noundef %11, ptr noundef nonnull %4) #16
  %16 = load ptr, ptr %4, align 8, !tbaa !31
  %17 = icmp eq ptr %16, %11
  br i1 %17, label %18, label %19

18:                                               ; preds = %14
  tail call void (ptr, i32, ptr, ...) @av_log(ptr noundef %0, i32 noundef 24, ptr noundef nonnull @.str.503) #16
  br label %40

19:                                               ; preds = %14
  %20 = call nsz double @strtod(ptr noundef %16, ptr noundef nonnull %4) #16
  %21 = load ptr, ptr %4, align 8, !tbaa !31
  %22 = load i8, ptr %21, align 1, !tbaa !88
  %23 = icmp eq i8 %22, 47
  %24 = getelementptr inbounds nuw i8, ptr %21, i64 1
  %spec.select = select i1 %23, ptr %24, ptr @.str.292
  %25 = fmul nsz double %10, 6.553600e+04
  %26 = fptosi double %25 to i32
  %27 = fmul nsz double %15, 6.553600e+04
  %28 = fptosi double %27 to i32
  %29 = fmul nsz double %20, 6.553600e+04
  %30 = fptosi double %29 to i32
  tail call void @avio_wb32(ptr noundef %1, i32 noundef 0) #16
  tail call void @avio_wl32(ptr noundef %1, i32 noundef 1768124268) #16
  tail call void @avio_wb32(ptr noundef %1, i32 noundef 0) #16
  %31 = load i32, ptr %3, align 4, !tbaa !30
  tail call void @avio_wb16(ptr noundef %1, i32 noundef %31) #16
  %32 = tail call i64 @strlen(ptr noundef nonnull dereferenceable(1) %spec.select) #18
  %33 = trunc i64 %32 to i32
  %34 = add i32 %33, 1
  tail call void @avio_write(ptr noundef %1, ptr noundef nonnull %spec.select, i32 noundef %34) #16
  tail call void @avio_w8(ptr noundef %1, i32 noundef 0) #16
  tail call void @avio_wb32(ptr noundef %1, i32 noundef %28) #16
  tail call void @avio_wb32(ptr noundef %1, i32 noundef %26) #16
  tail call void @avio_wb32(ptr noundef %1, i32 noundef %30) #16
  tail call void @avio_write(ptr noundef %1, ptr noundef nonnull @.str.502, i32 noundef 6) #16
  tail call void @avio_w8(ptr noundef %1, i32 noundef 0) #16
  %35 = tail call i64 @avio_seek(ptr noundef %1, i64 noundef 0, i32 noundef 1) #16
  %36 = tail call i64 @avio_seek(ptr noundef %1, i64 noundef %5, i32 noundef 0) #16
  %37 = sub nsw i64 %35, %5
  %38 = trunc i64 %37 to i32
  tail call void @avio_wb32(ptr noundef %1, i32 noundef %38) #16
  %39 = tail call i64 @avio_seek(ptr noundef %1, i64 noundef %35, i32 noundef 0) #16
  br label %40

40:                                               ; preds = %2, %19, %18, %13
  call void @llvm.lifetime.end.p0(i64 8, ptr nonnull %4) #16
  call void @llvm.lifetime.end.p0(i64 4, ptr nonnull %3) #16
  ret void
}